target datalayout = "e-m:e-p270:32:32-p271:32:32-p272:64:64-i64:64-i128:128-f80:128-n8:16:32:64-S128"
target triple = "x86_64-pc-linux-gnu"

%struct.VariableStatData = type { ptr, ptr, ptr, ptr, i32, i32, i32, i8, i8 }
%struct.Node = type { i32 }
%struct.Expr = type { i32 }
%struct.FmgrInfo = type { ptr, i32, i16, i8, i8, i8, ptr, ptr, ptr }
%struct.FormData_pg_statistic = type { i32, i16, i8, float, i32, float, i16, i16, i16, i16, i16, i32, i32, i32, i32, i32, i32, i32, i32, i32, i32 }
%struct.RelOptInfo = type { i32, i32, ptr, double, i8, i8, i8, ptr, ptr, ptr, ptr, ptr, ptr, ptr, ptr, ptr, ptr, i32, i32, i32, i16, i16, ptr, ptr, ptr, ptr, ptr, ptr, ptr, ptr, i32, double, double, ptr, ptr, ptr, i32, i32, i32, i32, i8, ptr, ptr, ptr, ptr, ptr, %struct.QualCost, i32, ptr, i8, i8, ptr, ptr, ptr, ptr, i32, ptr, i8, ptr, ptr, ptr, ptr, ptr, ptr }
%struct.QualCost = type { double, double }
%struct.HeapTupleData = type { i32, %struct.ItemPointerData, i32, ptr }
%struct.ItemPointerData = type { %struct.BlockIdData, i16 }
%struct.BlockIdData = type { i16, i16 }
%struct.HeapTupleHeaderData = type { %union.anon.4, %struct.ItemPointerData, i16, i16, i8, [0 x i8] }
%union.anon.4 = type { %struct.HeapTupleFields }
%struct.HeapTupleFields = type { i32, i32, %union.anon.5 }
%union.anon.5 = type { i32 }
%struct.Var = type { %struct.Expr, i32, i16, i32, i32, i32, ptr, i32, i32, i32, i16, i32 }

; Function Attrs: inlinehint nounwind uwtable
define internal i32 @BlockIdGetBlockNumber(ptr noundef %0) #1 {
  %2 = alloca ptr, align 8
  store ptr %0, ptr %2, align 8
  %3 = load ptr, ptr %2, align 8
  %4 = getelementptr inbounds nuw %struct.BlockIdData, ptr %3, i32 0, i32 0
  %5 = load i16, ptr %4, align 2
  %6 = zext i16 %5 to i32
  %7 = shl i32 %6, 16
  %8 = load ptr, ptr %2, align 8
  %9 = getelementptr inbounds nuw %struct.BlockIdData, ptr %8, i32 0, i32 1
  %10 = load i16, ptr %9, align 2
  %11 = zext i16 %10 to i32
  %12 = or i32 %7, %11
  ret i32 %12
}

; Function Attrs: inlinehint nounwind uwtable
define internal ptr @GETSTRUCT(ptr noundef %0) #1 {
  %2 = alloca ptr, align 8
  store ptr %0, ptr %2, align 8
  %3 = load ptr, ptr %2, align 8
  %4 = getelementptr inbounds nuw %struct.HeapTupleData, ptr %3, i32 0, i32 3
  %5 = load ptr, ptr %4, align 8
  %6 = load ptr, ptr %2, align 8
  %7 = getelementptr inbounds nuw %struct.HeapTupleData, ptr %6, i32 0, i32 3
  %8 = load ptr, ptr %7, align 8
  %9 = getelementptr inbounds nuw %struct.HeapTupleHeaderData, ptr %8, i32 0, i32 4
  %10 = load i8, ptr %9, align 2
  %11 = zext i8 %10 to i32
  %12 = sext i32 %11 to i64
  %13 = getelementptr inbounds i8, ptr %5, i64 %12
  ret ptr %13
}

; Function Attrs: inlinehint nounwind uwtable
define internal zeroext i16 @ItemPointerGetOffsetNumberNoCheck(ptr noundef %0) #1 {
  %2 = alloca ptr, align 8
  store ptr %0, ptr %2, align 8
  %3 = load ptr, ptr %2, align 8
  %4 = getelementptr inbounds nuw %struct.ItemPointerData, ptr %3, i32 0, i32 1
  %5 = load i16, ptr %4, align 2
  ret i16 %5
}

; Function Attrs: inlinehint nounwind uwtable
define internal i32 @ItemPointerGetBlockNumberNoCheck(ptr noundef %0) #1 {
  %2 = alloca ptr, align 8
  store ptr %0, ptr %2, align 8
  %3 = load ptr, ptr %2, align 8
  %4 = getelementptr inbounds nuw %struct.ItemPointerData, ptr %3, i32 0, i32 0
  %5 = call i32 @BlockIdGetBlockNumber(ptr noundef %4)
  ret i32 %5
}

; Function Attrs: inlinehint nounwind uwtable
define internal ptr @DatumGetPointer(i64 noundef %0) #1 {
  %2 = alloca i64, align 8
  store i64 %0, ptr %2, align 8
  %3 = load i64, ptr %2, align 8
  %4 = inttoptr i64 %3 to ptr
  ret ptr %4
}

; Function Attrs: nounwind uwtable
define internal double @scalarineqsel(ptr noundef %0, i32 noundef %1, i1 noundef zeroext %2, i1 noundef zeroext %3, i32 noundef %4, ptr noundef %5, i64 noundef %6, i32 noundef %7) #0 {
  %9 = alloca double, align 8
  %10 = alloca ptr, align 8
  %11 = alloca i32, align 4
  %12 = alloca i8, align 1
  %13 = alloca i8, align 1
  %14 = alloca i32, align 4
  %15 = alloca ptr, align 8
  %16 = alloca i64, align 8
  %17 = alloca i32, align 4
  %18 = alloca ptr, align 8
  %19 = alloca %struct.FmgrInfo, align 8
  %20 = alloca double, align 8
  %21 = alloca double, align 8
  %22 = alloca double, align 8
  %23 = alloca double, align 8
  %24 = alloca ptr, align 8
  %25 = alloca double, align 8
  %26 = alloca double, align 8
  %27 = alloca i32, align 4
  %28 = alloca i16, align 2
  store ptr %0, ptr %10, align 8
  store i32 %1, ptr %11, align 4
  %29 = zext i1 %2 to i8
  store i8 %29, ptr %12, align 1
  %30 = zext i1 %3 to i8
  store i8 %30, ptr %13, align 1
  store i32 %4, ptr %14, align 4
  store ptr %5, ptr %15, align 8
  store i64 %6, ptr %16, align 8
  store i32 %7, ptr %17, align 4
  call void @llvm.lifetime.start.p0(i64 8, ptr %18) #10
  call void @llvm.lifetime.start.p0(i64 48, ptr %19) #10
  call void @llvm.lifetime.start.p0(i64 8, ptr %20) #10
  call void @llvm.lifetime.start.p0(i64 8, ptr %21) #10
  call void @llvm.lifetime.start.p0(i64 8, ptr %22) #10
  call void @llvm.lifetime.start.p0(i64 8, ptr %23) #10
  %31 = load ptr, ptr %15, align 8
  %32 = getelementptr inbounds nuw %struct.VariableStatData, ptr %31, i32 0, i32 2
  %33 = load ptr, ptr %32, align 8
  %34 = icmp ne ptr %33, null
  br i1 %34, label %172, label %35

35:                                               ; preds = %8
  %36 = load ptr, ptr %15, align 8
  %37 = getelementptr inbounds nuw %struct.VariableStatData, ptr %36, i32 0, i32 0
  %38 = load ptr, ptr %37, align 8
  %39 = icmp ne ptr %38, null
  br i1 %39, label %40, label %171

40:                                               ; preds = %35
  %41 = load ptr, ptr %15, align 8
  %42 = getelementptr inbounds nuw %struct.VariableStatData, ptr %41, i32 0, i32 0
  %43 = load ptr, ptr %42, align 8
  %44 = getelementptr inbounds nuw %struct.Node, ptr %43, i32 0, i32 0
  %45 = load i32, ptr %44, align 4
  %46 = icmp eq i32 %45, 6
  br i1 %46, label %47, label %171

47:                                               ; preds = %40
  %48 = load ptr, ptr %15, align 8
  %49 = getelementptr inbounds nuw %struct.VariableStatData, ptr %48, i32 0, i32 0
  %50 = load ptr, ptr %49, align 8
  %51 = getelementptr inbounds nuw %struct.Var, ptr %50, i32 0, i32 2
  %52 = load i16, ptr %51, align 8
  %53 = sext i16 %52 to i32
  %54 = icmp eq i32 %53, -1
  br i1 %54, label %55, label %171

55:                                               ; preds = %47
  call void @llvm.lifetime.start.p0(i64 8, ptr %24) #10
  call void @llvm.lifetime.start.p0(i64 8, ptr %25) #10
  call void @llvm.lifetime.start.p0(i64 8, ptr %26) #10
  %56 = load ptr, ptr %15, align 8
  %57 = getelementptr inbounds nuw %struct.VariableStatData, ptr %56, i32 0, i32 1
  %58 = load ptr, ptr %57, align 8
  %59 = getelementptr inbounds nuw %struct.RelOptInfo, ptr %58, i32 0, i32 30
  %60 = load i32, ptr %59, align 8
  %61 = icmp eq i32 %60, 0
  br i1 %61, label %62, label %63

62:                                               ; preds = %55
  store double 1.000000e+00, ptr %9, align 8
  store i32 1, ptr %27, align 4
  br label %170

63:                                               ; preds = %55
  %64 = load i64, ptr %16, align 8
  %65 = call ptr @DatumGetPointer(i64 noundef %64)
  store ptr %65, ptr %24, align 8
  %66 = load ptr, ptr %24, align 8
  %67 = call i32 @ItemPointerGetBlockNumberNoCheck(ptr noundef %66)
  %68 = uitofp i32 %67 to double
  store double %68, ptr %25, align 8
  %69 = load ptr, ptr %15, align 8
  %70 = getelementptr inbounds nuw %struct.VariableStatData, ptr %69, i32 0, i32 1
  %71 = load ptr, ptr %70, align 8
  %72 = getelementptr inbounds nuw %struct.RelOptInfo, ptr %71, i32 0, i32 31
  %73 = load double, ptr %72, align 8
  %74 = load ptr, ptr %15, align 8
  %75 = getelementptr inbounds nuw %struct.VariableStatData, ptr %74, i32 0, i32 1
  %76 = load ptr, ptr %75, align 8
  %77 = getelementptr inbounds nuw %struct.RelOptInfo, ptr %76, i32 0, i32 30
  %78 = load i32, ptr %77, align 8
  %79 = uitofp i32 %78 to double
  %80 = fsub double %79, 5.000000e-01
  %81 = fdiv double %73, %80
  store double %81, ptr %26, align 8
  %82 = load double, ptr %25, align 8
  %83 = load ptr, ptr %15, align 8
  %84 = getelementptr inbounds nuw %struct.VariableStatData, ptr %83, i32 0, i32 1
  %85 = load ptr, ptr %84, align 8
  %86 = getelementptr inbounds nuw %struct.RelOptInfo, ptr %85, i32 0, i32 30
  %87 = load i32, ptr %86, align 8
  %88 = sub i32 %87, 1
  %89 = uitofp i32 %88 to double
  %90 = fcmp oge double %82, %89
  br i1 %90, label %91, label %94

91:                                               ; preds = %63
  %92 = load double, ptr %26, align 8
  %93 = fmul double %92, 5.000000e-01
  store double %93, ptr %26, align 8
  br label %94

94:                                               ; preds = %91, %63
  %95 = load double, ptr %26, align 8
  %96 = fcmp ogt double %95, 0.000000e+00
  br i1 %96, label %97, label %117

97:                                               ; preds = %94
  call void @llvm.lifetime.start.p0(i64 2, ptr %28) #10
  %98 = load ptr, ptr %24, align 8
  %99 = call zeroext i16 @ItemPointerGetOffsetNumberNoCheck(ptr noundef %98)
  store i16 %99, ptr %28, align 2
  %100 = load i16, ptr %28, align 2
  %101 = zext i16 %100 to i32
  %102 = sitofp i32 %101 to double
  %103 = load double, ptr %26, align 8
  %104 = fdiv double %102, %103
  %105 = fcmp olt double %104, 1.000000e+00
  br i1 %105, label %106, label %112

106:                                              ; preds = %97
  %107 = load i16, ptr %28, align 2
  %108 = zext i16 %107 to i32
  %109 = sitofp i32 %108 to double
  %110 = load double, ptr %26, align 8
  %111 = fdiv double %109, %110
  br label %113

112:                                              ; preds = %97
  br label %113

113:                                              ; preds = %112, %106
  %114 = phi double [ %111, %106 ], [ 1.000000e+00, %112 ]
  %115 = load double, ptr %25, align 8
  %116 = fadd double %115, %114
  store double %116, ptr %25, align 8
  call void @llvm.lifetime.end.p0(i64 2, ptr %28) #10
  br label %117

117:                                              ; preds = %113, %94
  %118 = load double, ptr %25, align 8
  %119 = load ptr, ptr %15, align 8
  %120 = getelementptr inbounds nuw %struct.VariableStatData, ptr %119, i32 0, i32 1
  %121 = load ptr, ptr %120, align 8
  %122 = getelementptr inbounds nuw %struct.RelOptInfo, ptr %121, i32 0, i32 30
  %123 = load i32, ptr %122, align 8
  %124 = uitofp i32 %123 to double
  %125 = fsub double %124, 5.000000e-01
  %126 = fdiv double %118, %125
  store double %126, ptr %23, align 8
  %127 = load i8, ptr %13, align 1, !range !4, !noundef !5
  %128 = trunc i8 %127 to i1
  %129 = zext i1 %128 to i32
  %130 = load i8, ptr %12, align 1, !range !4, !noundef !5
  %131 = trunc i8 %130 to i1
  %132 = zext i1 %131 to i32
  %133 = icmp eq i32 %129, %132
  br i1 %133, label %134, label %150

134:                                              ; preds = %117
  %135 = load ptr, ptr %15, align 8
  %136 = getelementptr inbounds nuw %struct.VariableStatData, ptr %135, i32 0, i32 1
  %137 = load ptr, ptr %136, align 8
  %138 = getelementptr inbounds nuw %struct.RelOptInfo, ptr %137, i32 0, i32 31
  %139 = load double, ptr %138, align 8
  %140 = fcmp oge double %139, 1.000000e+00
  br i1 %140, label %141, label %150

141:                                              ; preds = %134
  %142 = load ptr, ptr %15, align 8
  %143 = getelementptr inbounds nuw %struct.VariableStatData, ptr %142, i32 0, i32 1
  %144 = load ptr, ptr %143, align 8
  %145 = getelementptr inbounds nuw %struct.RelOptInfo, ptr %144, i32 0, i32 31
  %146 = load double, ptr %145, align 8
  %147 = fdiv double 1.000000e+00, %146
  %148 = load double, ptr %23, align 8
  %149 = fsub double %148, %147
  store double %149, ptr %23, align 8
  br label %150

150:                                              ; preds = %141, %134, %117
  %151 = load i8, ptr %12, align 1, !range !4, !noundef !5
  %152 = trunc i8 %151 to i1
  br i1 %152, label %153, label %156

153:                                              ; preds = %150
  %154 = load double, ptr %23, align 8
  %155 = fsub double 1.000000e+00, %154
  store double %155, ptr %23, align 8
  br label %156

156:                                              ; preds = %153, %150
  br label %157

157:                                              ; preds = %156
  %158 = load double, ptr %23, align 8
  %159 = fcmp olt double %158, 0.000000e+00
  br i1 %159, label %160, label %161

160:                                              ; preds = %157
  store double 0.000000e+00, ptr %23, align 8
  br label %166

161:                                              ; preds = %157
  %162 = load double, ptr %23, align 8
  %163 = fcmp ogt double %162, 1.000000e+00
  br i1 %163, label %164, label %165

164:                                              ; preds = %161
  store double 1.000000e+00, ptr %23, align 8
  br label %165

165:                                              ; preds = %164, %161
  br label %166

166:                                              ; preds = %165, %160
  br label %167

167:                                              ; preds = %166
  br label %168

168:                                              ; preds = %167
  %169 = load double, ptr %23, align 8
  store double %169, ptr %9, align 8
  store i32 1, ptr %27, align 4
  br label %170

170:                                              ; preds = %168, %62
  call void @llvm.lifetime.end.p0(i64 8, ptr %26) #10
  call void @llvm.lifetime.end.p0(i64 8, ptr %25) #10
  call void @llvm.lifetime.end.p0(i64 8, ptr %24) #10
  br label %227

171:                                              ; preds = %47, %40, %35
  store double 0x3FD5555555555555, ptr %9, align 8
  store i32 1, ptr %27, align 4
  br label %227

172:                                              ; preds = %8
  %173 = load ptr, ptr %15, align 8
  %174 = getelementptr inbounds nuw %struct.VariableStatData, ptr %173, i32 0, i32 2
  %175 = load ptr, ptr %174, align 8
  %176 = call ptr @GETSTRUCT(ptr noundef %175)
  store ptr %176, ptr %18, align 8
  %177 = load i32, ptr %11, align 4
  %178 = call i32 @get_opcode(i32 noundef %177)
  call void @fmgr_info(i32 noundef %178, ptr noundef %19)
  %179 = load ptr, ptr %15, align 8
  %180 = load i32, ptr %14, align 4
  %181 = load i64, ptr %16, align 8
  %182 = call double @mcv_selectivity(ptr noundef %179, ptr noundef %19, i32 noundef %180, i64 noundef %181, i1 noundef zeroext true, ptr noundef %22)
  store double %182, ptr %20, align 8
  %183 = load ptr, ptr %10, align 8
  %184 = load ptr, ptr %15, align 8
  %185 = load i32, ptr %11, align 4
  %186 = load i8, ptr %12, align 1, !range !4, !noundef !5
  %187 = trunc i8 %186 to i1
  %188 = load i8, ptr %13, align 1, !range !4, !noundef !5
  %189 = trunc i8 %188 to i1
  %190 = load i32, ptr %14, align 4
  %191 = load i64, ptr %16, align 8
  %192 = load i32, ptr %17, align 4
  %193 = call double @ineq_histogram_selectivity(ptr noundef %183, ptr noundef %184, i32 noundef %185, ptr noundef %19, i1 noundef zeroext %187, i1 noundef zeroext %189, i32 noundef %190, i64 noundef %191, i32 noundef %192)
  store double %193, ptr %21, align 8
  %194 = load ptr, ptr %18, align 8
  %195 = getelementptr inbounds nuw %struct.FormData_pg_statistic, ptr %194, i32 0, i32 3
  %196 = load float, ptr %195, align 4
  %197 = fpext float %196 to double
  %198 = fsub double 1.000000e+00, %197
  %199 = load double, ptr %22, align 8
  %200 = fsub double %198, %199
  store double %200, ptr %23, align 8
  %201 = load double, ptr %21, align 8
  %202 = fcmp oge double %201, 0.000000e+00
  br i1 %202, label %203, label %207

203:                                              ; preds = %172
  %204 = load double, ptr %21, align 8
  %205 = load double, ptr %23, align 8
  %206 = fmul double %205, %204
  store double %206, ptr %23, align 8
  br label %210

207:                                              ; preds = %172
  %208 = load double, ptr %23, align 8
  %209 = fmul double %208, 5.000000e-01
  store double %209, ptr %23, align 8
  br label %210

210:                                              ; preds = %207, %203
  %211 = load double, ptr %20, align 8
  %212 = load double, ptr %23, align 8
  %213 = fadd double %212, %211
  store double %213, ptr %23, align 8
  br label %214

214:                                              ; preds = %210
  %215 = load double, ptr %23, align 8
  %216 = fcmp olt double %215, 0.000000e+00
  br i1 %216, label %217, label %218

217:                                              ; preds = %214
  store double 0.000000e+00, ptr %23, align 8
  br label %223

218:                                              ; preds = %214
  %219 = load double, ptr %23, align 8
  %220 = fcmp ogt double %219, 1.000000e+00
  br i1 %220, label %221, label %222

221:                                              ; preds = %218
  store double 1.000000e+00, ptr %23, align 8
  br label %222

222:                                              ; preds = %221, %218
  br label %223

223:                                              ; preds = %222, %217
  br label %224

224:                                              ; preds = %223
  br label %225

225:                                              ; preds = %224
  %226 = load double, ptr %23, align 8
  store double %226, ptr %9, align 8
  store i32 1, ptr %27, align 4
  br label %227

227:                                              ; preds = %225, %171, %170
  call void @llvm.lifetime.end.p0(i64 8, ptr %23) #10
  call void @llvm.lifetime.end.p0(i64 8, ptr %22) #10
  call void @llvm.lifetime.end.p0(i64 8, ptr %21) #10
  call void @llvm.lifetime.end.p0(i64 8, ptr %20) #10
  call void @llvm.lifetime.end.p0(i64 48, ptr %19) #10
  call void @llvm.lifetime.end.p0(i64 8, ptr %18) #10
  %228 = load double, ptr %9, align 8
  ret double %228
}