; Function Attrs: nounwind uwtable
define internal fastcc double @scalarineqsel(ptr noundef readonly captures(none) %0, i32 noundef %1, i1 noundef zeroext %2, i1 noundef zeroext %3, i32 noundef %4, ptr noundef nonnull readonly captures(none) %5, i64 noundef %6, i32 noundef %7) unnamed_addr #0 {
  %9 = alloca %struct.FmgrInfo, align 8
  %10 = alloca double, align 8
  call void @llvm.lifetime.start.p0(i64 48, ptr nonnull %9) #12
  call void @llvm.lifetime.start.p0(i64 8, ptr nonnull %10) #12
  %11 = getelementptr inbounds nuw i8, ptr %5, i64 16
  %12 = load ptr, ptr %11, align 8
  %.not = icmp eq ptr %12, null
  br i1 %.not, label %13, label %64

13:                                               ; preds = %8
  %14 = load ptr, ptr %5, align 8
  %.not63 = icmp eq ptr %14, null
  br i1 %.not63, label %85, label %15

15:                                               ; preds = %13
  %16 = load i32, ptr %14, align 4
  %17 = icmp eq i32 %16, 6
  br i1 %17, label %18, label %85

18:                                               ; preds = %15
  %19 = getelementptr inbounds nuw i8, ptr %14, i64 8
  %20 = load i16, ptr %19, align 8
  %21 = icmp eq i16 %20, -1
  br i1 %21, label %22, label %85

22:                                               ; preds = %18
  %23 = getelementptr inbounds nuw i8, ptr %5, i64 8
  %24 = load ptr, ptr %23, align 8
  %25 = getelementptr inbounds nuw i8, ptr %24, i64 192
  %26 = load i32, ptr %25, align 8
  %27 = icmp eq i32 %26, 0
  br i1 %27, label %85, label %28

28:                                               ; preds = %22
  %29 = inttoptr i64 %6 to ptr
  %.val64 = load i16, ptr %29, align 2
  %30 = getelementptr i8, ptr %29, i64 2
  %.val65 = load i16, ptr %30, align 2
  %31 = zext i16 %.val64 to i32
  %32 = shl nuw i32 %31, 16
  %33 = zext i16 %.val65 to i32
  %34 = or disjoint i32 %32, %33
  %35 = uitofp i32 %34 to double
  %36 = getelementptr inbounds nuw i8, ptr %24, i64 200
  %37 = load double, ptr %36, align 8
  %38 = uitofp i32 %26 to double
  %39 = fadd double %38, -5.000000e-01
  %40 = fdiv double %37, %39
  %41 = add i32 %26, -1
  %42 = uitofp i32 %41 to double
  %43 = fcmp ult double %35, %42
  %44 = fmul double %40, 5.000000e-01
  %.054 = select i1 %43, double %40, double %44
  %45 = fcmp ogt double %.054, 0.000000e+00
  br i1 %45, label %46, label %53

46:                                               ; preds = %28
  %47 = getelementptr i8, ptr %29, i64 4
  %.val66 = load i16, ptr %47, align 2
  %48 = uitofp i16 %.val66 to double
  %49 = fdiv double %48, %.054
  %50 = fcmp olt double %49, 1.000000e+00
  %51 = select i1 %50, double %49, double 1.000000e+00
  %52 = fadd double %51, %35
  br label %53

53:                                               ; preds = %46, %28
  %.055 = phi double [ %52, %46 ], [ %35, %28 ]
  %54 = fdiv double %.055, %39
  %55 = xor i1 %2, %3
  %56 = fcmp ult double %37, 1.000000e+00
  %or.cond = or i1 %55, %56
  %57 = fdiv double 1.000000e+00, %37
  %58 = fsub double %54, %57
  %.056 = select i1 %or.cond, double %54, double %58
  %59 = fsub double 1.000000e+00, %.056
  %.157 = select i1 %2, double %59, double %.056
  %60 = fcmp olt double %.157, 0.000000e+00
  br i1 %60, label %85, label %61

61:                                               ; preds = %53
  %62 = fcmp ogt double %.157, 1.000000e+00
  br i1 %62, label %63, label %85

63:                                               ; preds = %61
  br label %85

64:                                               ; preds = %8
  %65 = getelementptr i8, ptr %12, i64 16
  %.val = load ptr, ptr %65, align 8
  %66 = getelementptr inbounds nuw i8, ptr %.val, i64 22
  %67 = load i8, ptr %66, align 2
  %68 = zext i8 %67 to i64
  %69 = getelementptr inbounds nuw i8, ptr %.val, i64 %68
  %70 = tail call i32 @get_opcode(i32 noundef %1) #12
  call void @fmgr_info(i32 noundef %70, ptr noundef nonnull %9) #12
  %71 = call double @mcv_selectivity(ptr noundef nonnull %5, ptr noundef nonnull %9, i32 noundef %4, i64 noundef %6, i1 noundef zeroext true, ptr noundef nonnull %10)
  %72 = call double @ineq_histogram_selectivity(ptr noundef %0, ptr noundef nonnull %5, i32 noundef %1, ptr noundef nonnull %9, i1 noundef zeroext %2, i1 noundef zeroext %3, i32 noundef %4, i64 noundef %6, i32 noundef %7)
  %73 = getelementptr inbounds nuw i8, ptr %69, i64 8
  %74 = load float, ptr %73, align 4
  %75 = fpext float %74 to double
  %76 = fsub double 1.000000e+00, %75
  %77 = load double, ptr %10, align 8
  %78 = fsub double %76, %77
  %79 = fcmp ult double %72, 0.000000e+00
  %. = select i1 %79, double 5.000000e-01, double %72
  %.3 = fmul double %., %78
  %80 = fadd double %71, %.3
  %81 = fcmp olt double %80, 0.000000e+00
  br i1 %81, label %85, label %82

82:                                               ; preds = %64
  %83 = fcmp ogt double %80, 1.000000e+00
  br i1 %83, label %84, label %85

84:                                               ; preds = %82
  br label %85

85:                                               ; preds = %84, %82, %64, %13, %15, %18, %22, %53, %61, %63
  %.1 = phi double [ 1.000000e+00, %22 ], [ 1.000000e+00, %63 ], [ %.157, %61 ], [ 0.000000e+00, %53 ], [ 0x3FD5555555555555, %18 ], [ 0x3FD5555555555555, %15 ], [ 0x3FD5555555555555, %13 ], [ 1.000000e+00, %84 ], [ %80, %82 ], [ 0.000000e+00, %64 ]
  call void @llvm.lifetime.end.p0(i64 8, ptr nonnull %10) #12
  call void @llvm.lifetime.end.p0(i64 48, ptr nonnull %9) #12
  ret double %.1
}